; Function Attrs: mustprogress nofree norecurse nosync nounwind willreturn memory(readwrite, inaccessiblemem: none) uwtable
define hidden void @_ZN9Assembler6pshufdE11XMMRegisterS0_i(ptr noundef nonnull align 8 dereferenceable(40) %0, i32 %1, i32 %2, i32 noundef %3) local_unnamed_addr #8 align 2 {
  %5 = alloca %class.InstructionAttr, align 8
  %6 = load i64, ptr @_ZN19Abstract_VM_Version9_featuresE, align 8
  %7 = and i64 %6, 8724152320
  %8 = icmp eq i64 %7, 134217728
  %9 = select i1 %8, i32 2, i32 0
  store i8 0, ptr %5, align 8
  %10 = getelementptr inbounds i8, ptr %5, i64 1
  %11 = load i32, ptr @UseAVX, align 4
  %12 = icmp slt i32 %11, 3
  %13 = zext i1 %12 to i8
  store i8 %13, ptr %10, align 1
  %14 = getelementptr inbounds i8, ptr %5, i64 2
  store <4 x i8> <i8 1, i8 1, i8 0, i8 0>, ptr %14, align 2
  %15 = getelementptr inbounds i8, ptr %5, i64 6
  store i8 1, ptr %15, align 2
  %16 = getelementptr inbounds i8, ptr %5, i64 7
  store i8 0, ptr %16, align 1
  %17 = getelementptr inbounds i8, ptr %5, i64 8
  store i32 %9, ptr %17, align 8
  %18 = getelementptr inbounds i8, ptr %5, i64 12
  store <4 x i32> <i32 24, i32 4, i32 0, i32 0>, ptr %18, align 4
  %19 = getelementptr inbounds i8, ptr %5, i64 32
  store ptr null, ptr %19, align 8
  %20 = sext i32 %1 to i64
  %21 = getelementptr inbounds %"class.XMMRegister::XMMRegisterImpl", ptr getelementptr inbounds (i8, ptr @all_XMMRegisterImpls, i64 1), i64 %20
  %22 = ptrtoint ptr %21 to i64
  %23 = trunc i64 %22 to i32
  %24 = sub i32 %23, ptrtoint (ptr getelementptr inbounds (i8, ptr @all_XMMRegisterImpls, i64 1) to i32)
  %25 = sext i32 %2 to i64
  %26 = getelementptr inbounds %"class.XMMRegister::XMMRegisterImpl", ptr getelementptr inbounds (i8, ptr @all_XMMRegisterImpls, i64 1), i64 %25
  %27 = ptrtoint ptr %26 to i64
  %28 = trunc i64 %27 to i32
  %29 = sub i32 %28, ptrtoint (ptr getelementptr inbounds (i8, ptr @all_XMMRegisterImpls, i64 1) to i32)
  %30 = icmp sgt i32 %11, 0
  br i1 %30, label %31, label %33

31:                                               ; preds = %4
  %32 = call noundef i32 @_ZN9Assembler21vex_prefix_and_encodeEiiiNS_13VexSimdPrefixENS_9VexOpcodeEP15InstructionAttrb(ptr noundef nonnull align 8 dereferenceable(40) %0, i32 noundef %24, i32 noundef 0, i32 noundef %29, i32 noundef 1, i32 noundef 1, ptr noundef nonnull %5, i1 noundef zeroext false)
  br label %_ZN9Assembler22simd_prefix_and_encodeE11XMMRegisterS0_S0_NS_13VexSimdPrefixENS_9VexOpcodeEP15InstructionAttrb.exit

33:                                               ; preds = %4
  %34 = tail call noundef i32 @_ZN9Assembler21rex_prefix_and_encodeEiiNS_13VexSimdPrefixENS_9VexOpcodeEb(ptr noundef nonnull align 8 dereferenceable(40) %0, i32 noundef %24, i32 noundef %29, i32 noundef 1, i32 noundef 1, i1 noundef zeroext false)
  br label %_ZN9Assembler22simd_prefix_and_encodeE11XMMRegisterS0_S0_NS_13VexSimdPrefixENS_9VexOpcodeEP15InstructionAttrb.exit

_ZN9Assembler22simd_prefix_and_encodeE11XMMRegisterS0_S0_NS_13VexSimdPrefixENS_9VexOpcodeEP15InstructionAttrb.exit: ; preds = %31, %33
  %.0.i = phi i32 [ %32, %31 ], [ %34, %33 ]
  %35 = getelementptr inbounds i8, ptr %0, i64 8
  %36 = load ptr, ptr %35, align 8
  %37 = trunc i32 %.0.i to i8
  %.0.i3.i = or i8 %37, -64
  %.0.i4.i = trunc i32 %3 to i8
  %38 = getelementptr inbounds i8, ptr %36, i64 16
  %39 = load ptr, ptr %38, align 8
  %40 = getelementptr inbounds i8, ptr %39, i64 1
  store i8 112, ptr %39, align 1
  %41 = getelementptr inbounds i8, ptr %39, i64 2
  store i8 %.0.i3.i, ptr %40, align 1
  %42 = getelementptr inbounds i8, ptr %39, i64 3
  store i8 %.0.i4.i, ptr %41, align 1
  store ptr %42, ptr %38, align 8
  %43 = load ptr, ptr %19, align 8
  %.not.i = icmp eq ptr %43, null
  br i1 %.not.i, label %_ZN15InstructionAttrD2Ev.exit, label %44

44:                                               ; preds = %_ZN9Assembler22simd_prefix_and_encodeE11XMMRegisterS0_S0_NS_13VexSimdPrefixENS_9VexOpcodeEP15InstructionAttrb.exit
  %45 = getelementptr inbounds i8, ptr %43, i64 32
  store ptr null, ptr %45, align 8
  br label %_ZN15InstructionAttrD2Ev.exit

_ZN15InstructionAttrD2Ev.exit:                    ; preds = %_ZN9Assembler22simd_prefix_and_encodeE11XMMRegisterS0_S0_NS_13VexSimdPrefixENS_9VexOpcodeEP15InstructionAttrb.exit, %44
  ret void
}